(lp0
VCI15.1002
p1
aV\u0421\u0435\u0442\u0438
p2
aV\u041c\u0435\u0436\u0441\u0435\u0442\u0435\u0432\u043e\u0439 \u044d\u043a\u0440\u0430\u043d
p3
aV\u041a\u043e\u043d\u0442\u0440\u043e\u043b\u044c \u0438 \u0444\u0438\u043b\u044c\u0442\u0440\u0430\u0446\u0438\u044f \u0441\u0435\u0442\u0435\u0432\u044b\u0445 \u043f\u0430\u043a\u0435\u0442\u043e\u0432
p4
aV\u041e\u041f\u0421.\u041b\u0412\u0421.\u0421\u041f\u0414
p5
aV\u0410\u0421 \u0424\u041a 
p6
aVCisco
p7
aVCisco ASA 5540
p8
aVJMX1405L0NW
p9
aVCOM6V10ARD
p10
aV9900-08-000002 \u0421\u0423\u042d
p11
aV41430200002359
p12
aL32L
aL4L
aV\u041c\u0430\u0448\u0437\u0430\u043b 4-1
p13
aVD3
p14
aV129085, \u0433. \u041c\u043e\u0441\u043a\u0432\u0430, \u041f\u0440\u043e\u0441\u043f\u0435\u043a\u0442 \u041c\u0438\u0440\u0430 \u0434. 105, \u0441\u0442\u0440. 6
p15
aV\u0420\u0412\u0426
p16
aV\u041c\u0430\u0440\u043a\u043e\u0432 \u0414.\u0410.
p17
aVN/A
p18
aV\u0418\u0441\u043f\u043e\u043b\u044c\u0437\u0443\u0435\u0442\u0441\u044f
p19
aV\u0417\u041a\u0412\u0421
p20
aV\u041c\u043e\u043b\u043e\u043a\u0430\u043d\u043e\u0432 \u0418.\u041d.
p21
aV\u0417\u0410\u041e "\u0410\u0439-\u0422\u0435\u043a\u043e"
p22
aVICB-06-02/2009
p23
aV\u041c\u0435\u0436\u0441\u0435\u0442\u0435\u0432\u043e\u0439 \u044d\u043a\u0440\u0430\u043d #1
p24
acdatetime
datetime
p25
(S'\x07\xdd\x0c\x1f\x00\x00\x00\x00\x00\x00'
p26
tp27
Rp28
ag25
(S'\x07\xdd\x0c\x1f\x00\x00\x00\x00\x00\x00'
p29
tp30
Rp31
aV2010
p32
aV\u0417\u0410\u041e "\u0422\u0415\u0425\u041d\u041e\u0421\u0415\u0420\u0412\u042a \u0410/\u0421"
p33
aV\u0423\u0418\u0421-78/2016 \u043e\u0442 23.12.2016
p34
ag25
(S'\x07\xe1\x0c\x1f\x00\x00\x00\x00\x00\x00'
p35
tp36
Rp37
aV\u043d\u0435 \u043f\u0440\u0438\u043c\u0435\u043d\u0438\u043c\u043e
p38
ag38
ag38
ag18
ag18
ag18
aL8L
aV3
p39
ag18
ag18
aV190
p40
aVFW1-2
p41
aV10.0.254.128
p42
aV255.255.255.0
p43
aV10.0.254.24
p44
aV00:1D:45:1A:67:89
p45
a.