(lp0
VCI1344042
p1
aV\u0421\u0425\u0414 \u0438 \u0421\u0420\u041a
p2
aV\u0412\u043d\u0435\u0448\u043d\u0438\u0439 \u0434\u0438\u0441\u043a\u043e\u0432\u044b\u0439 \u043c\u0430\u0441\u0441\u0438\u0432 \u2013 \u043a\u043e\u043d\u0442\u0440\u043e\u043b\u043b\u0435\u0440
p3
aV\u0425\u0440\u0430\u043d\u0435\u043d\u0438\u0435 \u0434\u0430\u043d\u043d\u044b\u0445
p4
aV\u041e\u041f\u0421.\u0410\u041e\u0421\u041f\u041e.\u0413\u0418\u0421\u0413\u041c\u041f
p5
aV\u0413\u0418\u0421 \u0413\u041c\u041f
p6
aVIBM 
p7
aVIBM DCS3700 Storage System
p8
aV13D09PK
p9
aV1818-80C
p10
aV9500-05-140032 \u0421\u0423\u042d
p11
aVN/A
p12
aL4L
aV\u041c\u0430\u0448.\u0437\u0430\u043b.1\u0416
p13
aVD11
p14
aV17-20
p15
aV\u0433. \u041c\u043e\u0441\u043a\u0432\u0430, \u041f\u0440\u043e\u0441\u043f\u0435\u043a\u0442 \u041c\u0438\u0440\u0430, \u0434. 105, \u0441\u0442\u0440. 11
p16
aV60/\u0420\u0412\u0426
p17
aV\u041c\u0430\u0440\u043a\u043e\u0432 \u0414\u0435\u043d\u0438\u0441
p18
ag12
aV\u0418\u0441\u043f\u043e\u043b\u044c\u0437\u0443\u0435\u0442\u0441\u044f
p19
ag12
ag12
ag12
ag12
ag12
ag12
ag12
ag12
aV\u0422\u0435\u0445\u043d\u043e\u0441\u0435\u0440\u0432\u044a
p20
aV\u0423\u0418\u0421-78/2017
p21
acdatetime
datetime
p22
(S'\x07\xe1\x0c\x1f\x00\x00\x00\x00\x00\x00'
p23
tp24
Rp25
ag12
ag12
ag12
ag12
ag12
ag12
ag12
aV900 Tb
p26
ag12
ag12
ag12
ag12
ag12
ag12
aVSATA
p27
aL60L
aL180L
aL0L
ag12
aV\u043d\u0435 \u043f\u0440\u0438\u043c\u0435\u043d\u0438\u043c\u043e
p28
ag28
aL16L
aL16L
ag28
ag28
ag28
ag28
ag28
ag28
ag28
ag28
aV10.133.12.60,\u000a10.133.12.61
p29
aV255.255.255.128
p30
aV10.133.12.126
p31
ag12
a.