(lp0
VCI09.1314
p1
aV\u0421\u0425\u0414 \u0438 \u0421\u0420\u041a
p2
aV\u0412\u043d\u0435\u0448\u043d\u0438\u0439 \u0434\u0438\u0441\u043a\u043e\u0432\u044b\u0439 \u043c\u0430\u0441\u0441\u0438\u0432 \u2013 \u0434\u0438\u0441\u043a\u043e\u0432\u0430\u044f \u043f\u043e\u043b\u043a\u0430
p3
aV\u0421\u0438\u0441\u0442\u0435\u043c\u0430 \u0445\u0440\u0430\u043d\u0435\u043d\u0438\u044f \u0434\u0430\u043d\u043d\u044b\u0445
p4
aV\u041e\u041f\u0421.\u0421\u0425\u0414.\u0410\u0421\u0424\u041a
p5
aV\u0410\u0421 \u0424\u041a 
p6
aVHP
p7
aVHP Storage Works M6412A
p8
aVSGA10800JF
p9
aVAG638B
p10
aV9900-05-000013-14 \u0421\u0423\u042d
p11
aV41430200002369
p12
aL4L
aV\u041c\u0430\u0448\u0437\u0430\u043b 4-1
p13
aVD4
p14
aVN/A
p15
aV129085, \u0433. \u041c\u043e\u0441\u043a\u0432\u0430, \u041f\u0440\u043e\u0441\u043f\u0435\u043a\u0442 \u041c\u0438\u0440\u0430 \u0434. 105, \u0441\u0442\u0440. 6
p16
aV\u0420\u0412\u0426
p17
aV\u041c\u0430\u0440\u043a\u043e\u0432 \u0414.\u0410.
p18
ag15
aV\u041d\u0435 \u0438\u0441\u043f\u043e\u043b\u044c\u0437\u0443\u0435\u0442\u0441\u044f
p19
aV\u0417\u041a\u0412\u0421
p20
aV\u041c\u043e\u043b\u043e\u043a\u0430\u043d\u043e\u0432 \u0418.\u041d.
p21
aV\u0417\u0410\u041e "\u041a\u0420\u041e\u041a \u0438\u043d\u043a\u043e\u0440\u043f\u043e\u0440\u0435\u0439\u0442\u0435\u0434"
p22
aV\u0423\u0418\u0421-48/2011 \u043e\u0442 09.09.2011
p23
aV\u041a\u043e\u043c\u043f\u043b\u0435\u043a\u0442 \u043e\u0431\u043d\u043e\u0432\u043b\u0435\u043d\u0438\u0439 \u0434\u043b\u044f \u0434\u0438\u0441\u043a\u043e\u0432\u043e\u0433\u043e \u043c\u0430\u0441\u0441\u0438\u0432\u0430 HP EVA 8400
p24
aV09.09.2014
p25
acdatetime
datetime
p26
(S'\x07\xde\t\x0b\x00\x00\x00\x00\x00\x00'
p27
tp28
Rp29
aL2011L
ag15
ag15
ag15
ag15
ag15
ag15
ag15
ag15
ag15
aVFC
p30
ag15
ag30
aL12L
aL3686L
ag15
ag15
ag15
ag15
ag15
ag15
ag15
aL575L
ag15
ag15
ag15
ag15
aV\u043d\u0435 \u043f\u0440\u0438\u043c\u0435\u043d\u0438\u043c\u043e
p31
ag31
ag31
ag31
ag31
ag31
ag15
ag15
ag15
ag15
ag15
ag15
a.