(lp0
VCI07.1041
p1
aV\u0421\u0435\u0440\u0432\u0435\u0440\u043d\u043e\u0435 \u043e\u0431\u043e\u0440\u0443\u0434\u043e\u0432\u0430\u043d\u0438\u0435
p2
aV\u0421\u0435\u0440\u0432\u0435\u0440\u043d\u043e\u0435 \u0448\u0430\u0441\u0441\u0438
p3
ag3
aV\u041e\u041f\u0421.\u0410\u041e\u0421\u041f\u041e.\u0421\u0423\u0424\u0414
p4
aV\u0421\u0423\u0424\u0414 \u041f\u043e\u0440\u0442\u0430\u043b
p5
aVIBM
p6
aVIBM BladeCenter S (8886)
p7
aV060BV4L
p8
aV8886-1TG
p9
aV9900-01-000041 \u0421\u0423\u042d
p10
aV341430200000394
p11
aV2-8
p12
aL4L
aV\u041c\u0430\u0448\u0437\u0430\u043b 4-1
p13
aVD6
p14
aV129085, \u0433. \u041c\u043e\u0441\u043a\u0432\u0430, \u041f\u0440\u043e\u0441\u043f\u0435\u043a\u0442 \u041c\u0438\u0440\u0430 \u0434. 105, \u0441\u0442\u0440. 6
p15
aV\u0420\u0412\u0426
p16
aV\u041c\u0430\u0440\u043a\u043e\u0432 \u0414.\u0410.
p17
aVN/A
p18
aV\u0418\u0441\u043f\u043e\u043b\u044c\u0437\u0443\u0435\u0442\u0441\u044f
p19
aV\u0417\u041a\u0412\u0421
p20
aV\u041c\u043e\u043b\u043e\u043a\u0430\u043d\u043e\u0432 \u0418.\u041d.
p21
aV\u041e\u041e\u041e "\u0421\u0438\u0441\u0442\u0435\u043c\u0430\u0442\u0438\u043a\u0430"
p22
aV\u0423\u0418\u0421-29/2014 \u043e\u0442 31.10.2014
p23
aV\u041a\u043e\u043c\u043f\u043b\u0435\u043a\u0442 \u043c\u043e\u0434\u0435\u0440\u043d\u0438\u0437\u0430\u0446\u0438\u0438 \u0441\u0435\u0440\u0432\u0435\u0440\u043d\u043e\u0433\u043e \u043e\u0431\u043e\u0440\u0443\u0434\u043e\u0432\u0430\u043d\u0438\u044f \u2116 2
p24
acdatetime
datetime
p25
(S'\x07\xdf\n\x1f\x00\x00\x00\x00\x00\x00'
p26
tp27
Rp28
ag25
(S'\x07\xdf\x05\x08\x00\x00\x00\x00\x00\x00'
p29
tp30
Rp31
aL2012L
aV\u0417\u0410\u041e "\u0422\u0415\u0425\u041d\u041e\u0421\u0415\u0420\u0412\u042a \u0410/\u0421"
p32
aV\u0423\u0418\u0421-78/2016 \u043e\u0442 23.12.2016
p33
ag25
(S'\x07\xe1\x0c\x1f\x00\x00\x00\x00\x00\x00'
p34
tp35
Rp36
ag18
ag18
ag18
ag18
ag18
ag18
ag18
ag18
ag18
ag18
ag18
ag18
ag18
ag18
ag18
ag18
ag18
ag18
ag18
ag18
ag18
ag18
ag18
aL2900L
aL12L
aL4L
aL12L
aL4L
ag18
aVMM5CF3FCEF9218
p37
aV10.0.200.16
p38
aV255.255.255.192
p39
aV10.0.200.1
p40
aV5C:F3:FC:EF:9E:62
p41
ag18
aV10.136.200.43-47
p42
ag39
aV10.136.200.1
p43
aV5c:f3:fc:ef:9e:62
p44
a.