(lp0
VCI16.1015
p1
aV\u0421\u0425\u0414 \u0438 \u0421\u0420\u041a
p2
aV\u041a\u043e\u043c\u043c\u0443\u0442\u0430\u0442\u043e\u0440 SAN
p3
aV\u041a\u043e\u043c\u043c\u0443\u0442\u0430\u0442\u0430\u0446\u0438\u044f \u0441\u0435\u0442\u0435\u0432\u044b\u0445 \u043f\u0430\u043a\u0435\u0442\u043e\u0432 \u0421\u0425\u0414
p4
aV\u041e\u041f\u0421.\u0410\u041e\u0421\u041f\u041e.\u0421\u0423\u0424\u0414
p5
aV\u0421\u0423\u0424\u0414 \u041f\u043e\u0440\u0442\u0430\u043b
p6
aVIBM
p7
aVIBM System Storage SAN48B-5
p8
aV10420DG
p9
aV2498-F48
p10
aV9900-09-000012 \u0421\u0423\u042d
p11
aVN/A
p12
aL4L
aV\u041c\u0430\u0448\u0437\u0430\u043b 4-1
p13
aVD2
p14
aV39
p15
aV129085, \u0433. \u041c\u043e\u0441\u043a\u0432\u0430, \u041f\u0440\u043e\u0441\u043f\u0435\u043a\u0442 \u041c\u0438\u0440\u0430 \u0434. 105, \u0441\u0442\u0440. 6
p16
aV\u0420\u0412\u0426
p17
aV\u041c\u0430\u0440\u043a\u043e\u0432 \u0414.\u0410.
p18
ag12
aV\u0418\u0441\u043f\u043e\u043b\u044c\u0437\u0443\u0435\u0442\u0441\u044f
p19
aV\u0417\u041a\u0412\u0421
p20
aV\u041c\u043e\u043b\u043e\u043a\u0430\u043d\u043e\u0432 \u0418.\u041d.
p21
aV\u041e\u041e\u041e "\u0421\u0438\u0441\u0442\u0435\u043c\u0430\u0442\u0438\u043a\u0430"
p22
aV\u0423\u0418\u0421-29/2014 \u043e\u0442 31.10.2014
p23
aV\u041a\u043e\u043c\u043c\u0443\u0442\u0430\u0442\u043e\u0440 \u0441\u0435\u0442\u0438 \u0445\u0440\u0430\u043d\u0435\u043d\u0438\u044f \u0434\u0430\u043d\u043d\u044b\u0445
p24
acdatetime
datetime
p25
(S'\x07\xdf\x0c\t\x00\x00\x00\x00\x00\x00'
p26
tp27
Rp28
ag25
(S'\x07\xdf\t\x1d\x00\x00\x00\x00\x00\x00'
p29
tp30
Rp31
aL2014L
aV\u0417\u0410\u041e "\u0422\u0415\u0425\u041d\u041e\u0421\u0415\u0420\u0412\u042a \u0410/\u0421"
p32
aV\u0423\u0418\u0421-78/2016 \u043e\u0442 23.12.2016
p33
ag25
(S'\x07\xe1\x0c\x1f\x00\x00\x00\x00\x00\x00'
p34
tp35
Rp36
ag12
ag12
ag12
ag12
ag12
ag12
aVFC
p37
aV\u043d\u0435 \u043f\u0440\u0438\u043c\u0435\u043d\u0438\u043c\u043e
p38
ag38
ag38
ag38
ag38
ag38
ag38
ag38
ag38
ag38
ag38
ag12
aL2L
aL1L
aL48L
aL38L
ag38
ag38
ag38
ag38
ag38
ag38
aVFibre Channel
p39
aVASC-FC-SW02
p40
aV10.136.200.19
p41
aV255.255.255.0
p42
aV10.136.200.1
p43
ag12
a.