(lp0
VCI07.1003
p1
aV\u0421\u0435\u0440\u0432\u0435\u0440\u043d\u043e\u0435 \u043e\u0431\u043e\u0440\u0443\u0434\u043e\u0432\u0430\u043d\u0438\u0435
p2
aV\u0421\u0435\u0440\u0432\u0435\u0440 \u044586
p3
aV\u0421\u0435\u0440\u0432\u0435\u0440 \u0431\u0435\u0437\u043e\u043f\u0430\u0441\u043d\u043e\u0441\u0442\u0438 (\u043e\u0441\u043d\u043e\u0432\u043d\u043e\u0439)
p4
aV\u041e\u041f\u0421.\u0410\u041e\u0421\u041f\u041e.\u0410\u0421\u0424\u041a
p5
aV\u0410\u0421 \u0424\u041a 
p6
aVHP
p7
aVHP Proliant DL380 G6
p8
aVGB8002EV92
p9
aV494329-B21
p10
aV9900-01-000003 \u0421\u0423\u042d
p11
aV41430200002012
p12
aV18-19
p13
aL4L
aV\u041c\u0430\u0448\u0437\u0430\u043b 4-1
p14
aVD12
p15
aV129085, \u0433. \u041c\u043e\u0441\u043a\u0432\u0430, \u041f\u0440\u043e\u0441\u043f\u0435\u043a\u0442 \u041c\u0438\u0440\u0430 \u0434. 105, \u0441\u0442\u0440. 6
p16
aV\u0420\u0412\u0426
p17
aV\u041c\u0430\u0440\u043a\u043e\u0432 \u0414.\u0410.
p18
aVN/A
p19
aV\u0418\u0441\u043f\u043e\u043b\u044c\u0437\u0443\u0435\u0442\u0441\u044f
p20
aV\u0417\u041a\u0412\u0421
p21
aV\u041c\u043e\u043b\u043e\u043a\u0430\u043d\u043e\u0432 \u0418.\u041d.
p22
aV\u0417\u0410\u041e "\u0410\u0439-\u0422\u0435\u043a\u043e"
p23
aVICB-06-02/2009
p24
aV\u0421\u0435\u0440\u0432\u0435\u0440 #1
p25
aV\u0437\u0430\u043a\u043e\u043d\u0447\u0438\u043b\u0441\u044f
p26
ag26
aL2009L
aV\u0417\u0410\u041e "\u0422\u0415\u0425\u041d\u041e\u0421\u0415\u0420\u0412\u042a \u0410/\u0421"
p27
aV\u0423\u0418\u0421-78/2016 \u043e\u0442 23.12.2016
p28
acdatetime
datetime
p29
(S'\x07\xe1\x0c\x1f\x00\x00\x00\x00\x00\x00'
p30
tp31
Rp32
aV\u043d\u0435 \u043f\u0440\u0438\u043c\u0435\u043d\u0438\u043c\u043e
p33
ag33
ag33
ag19
ag19
ag19
aV3,0
p34
aV8
p35
ag19
ag19
aL16L
aL18L
aL4L
aVSAS
p36
aL2L
aL146L
ag19
ag19
ag19
ag19
ag19
ag19
aL6L
aL460L
aL2L
aL2L
aL2L
aL2L
ag19
aVf000r01
p37
aV10.136.200.16
p38
aV255.255.255.0
p39
aV10.136.200.1
p40
ag19
ag19
ag19
ag19
ag19
ag19
a.