(lp0
VCI1344044
p1
aV\u0421\u0435\u0442\u0438
p2
aV\u041a\u043e\u043c\u043c\u0443\u0442\u0430\u0442\u043e\u0440
p3
aV\u041a\u043e\u043c\u043c\u0443\u0442\u0430\u0442\u0430\u0446\u0438\u044f \u0441\u0435\u0442\u0435\u0432\u044b\u0445 \u043f\u0430\u043a\u0435\u0442\u043e\u0432
p4
aV\u041e\u041f\u0421.\u0410\u041e\u0421\u041f\u041e.\u0413\u0418\u0421\u0413\u041c\u041f
p5
aV\u0413\u0418\u0421 \u0413\u041c\u041f
p6
aVCISCO
p7
aVCisco Catalyst 2960
p8
aVFOC1529V48A
p9
aVWS-C2960G-24TC-L
p10
aV9500-06-160001 \u0421\u0423\u042d
p11
aV\u0431/\u043d
p12
aL18L
aL4L
aV\u041c\u0430\u0448.\u0437\u0430\u043b.1\u0416
p13
aVA9
p14
aV\u0433. \u041c\u043e\u0441\u043a\u0432\u0430, \u041f\u0440\u043e\u0441\u043f\u0435\u043a\u0442 \u041c\u0438\u0440\u0430, 105 \u0441\u0442\u0440.6
p15
aV\u0426\u0410\u0424\u041a
p16
aV\u041c\u0430\u0440\u043a\u043e\u0432 \u0414\u0435\u043d\u0438\u0441
p17
aVN/A
p18
aV\u0418\u0441\u043f\u043e\u043b\u044c\u0437\u0443\u0435\u0442\u0441\u044f
p19
aV\u0410\u0434\u043c\u0438\u043d\u0438\u0441\u0442\u0440\u0438\u0440\u043e\u0432\u0430\u043d\u0438\u044f
p20
ag18
aV\u041a\u0420\u041e\u041a
p21
aV\u0423\u0418\u0421-48/2011
p22
aV\u041a\u043e\u043c\u043c\u0443\u0442\u0430\u0442\u043e\u0440 #1
p23
acdatetime
datetime
p24
(S'\x07\xde\n\x0b\x00\x00\x00\x00\x00\x00'
p25
tp26
Rp27
ag18
aL2010L
ag18
ag18
ag18
ag18
ag18
ag18
ag18
ag18
ag18
aL24L
aL23L
aL0L
aL0L
aL30L
aVADM-KK-SW02
p28
aV10.133.8.4
p29
aV255.255.255.0
p30
aV10.133.8.254
p31
aV64ae.0c59.d2c1
p32
a.