(lp0
VCI1344064
p1
aV\u0421\u0435\u0442\u0438
p2
aV\u041a\u043e\u043c\u043c\u0443\u0442\u0430\u0442\u043e\u0440
p3
aV\u041a\u043e\u043c\u043c\u0443\u0442\u0430\u0442\u0430\u0446\u0438\u044f \u0441\u0435\u0442\u0435\u0432\u044b\u0445 \u043f\u0430\u043a\u0435\u0442\u043e\u0432
p4
aV\u041e\u041f\u0421.\u0410\u041e\u0421\u041f\u041e.\u0413\u0418\u0421\u0413\u041c\u041f
p5
aV\u0413\u0418\u0421 \u0413\u041c\u041f
p6
aVIBM
p7
aVIBM EN4093R 10Gb Scalable Switch
p8
aVY010CM393146
p9
aV95Y3311
p10
aV9500-06-160018 \u0421\u0423\u042d
p11
aVN/A
p12
aV01--10
p13
aL4L
aV\u041c\u0430\u0448.\u0437\u0430\u043b.1\u0416
p14
aV\u04214
p15
aV\u0433. \u041c\u043e\u0441\u043a\u0432\u0430, \u041f\u0440\u043e\u0441\u043f\u0435\u043a\u0442 \u041c\u0438\u0440\u0430, \u0434. 105, \u0441\u0442\u0440. 6
p16
ag12
aV\u041c\u0430\u0440\u043a\u043e\u0432 \u0414\u0435\u043d\u0438\u0441
p17
ag12
aV\u0418\u0441\u043f\u043e\u043b\u044c\u0437\u0443\u0435\u0442\u0441\u044f
p18
aV\u0414\u041c\u0417
p19
ag12
ag12
ag12
ag12
ag12
ag12
ag12
ag12
ag12
ag12
ag12
ag12
ag12
ag12
ag12
ag12
aL2L
aL0L
aL6L
aL1L
aV\u043d\u0435 \u043f\u0440\u0438\u043c\u0435\u043d\u0438\u043c\u043e
p20
aVGIS-CHS04-SW02
p21
aV10.133.12.6
p22
aV255.255.255.128
p23
aV10.133.12.126
p24
aVA8:97:DC:4E:FE:EF
p25
a.