(lp0
V\u2116 \u041a\u042d
p1
aV\u0422\u0438\u043f \u041a\u042d
p2
aV\u041f\u043e\u0434\u0442\u0438\u043f \u041a\u042d
p3
aV\u041d\u0430\u0437\u043d\u0430\u0447\u0435\u043d\u0438\u0435
p4
aV\u041e\u043f\u0435\u0440\u0430\u0446\u0438\u043e\u043d\u043d\u044b\u0439 \u0441\u0435\u0440\u0432\u0438\u0441
p5
aV\u0418\u0422-\u043f\u043e\u0434\u0441\u0438\u0441\u0442\u0435\u043c\u0430 (\u043f\u043e \u0413\u041a)
p6
aV\u041f\u0440\u0438\u043e\u0437\u0432\u043e\u0434\u0438\u0442\u0435\u043b\u044c
p7
aV\u041c\u043e\u0434\u0435\u043b\u044c
p8
aV\u0421\u0435\u0440\u0438\u0439\u043d\u044b\u0439 \u043d\u043e\u043c\u0435\u0440
p9
aV\u041f\u0430\u0440\u0442-\u043d\u043e\u043c\u0435\u0440
p10
aV\u0418\u0434\u0435\u043d\u0442\u0438\u0444\u0438\u043a\u0430\u0446\u0438\u043e\u043d\u043d\u044b\u0439 \u043d\u043e\u043c\u0435\u0440  (\u043c\u0430\u0440\u043a\u0438\u0440\u043e\u0432\u043a\u0430) 
p11
aV\u0418\u043d\u0432\u0435\u043d\u0442\u0430\u0440\u043d\u044b\u0439 \u043d\u043e\u043c\u0435\u0440 (\u043f\u043e \u0431\u0443\u0445\u0433\u0430\u043b\u0442\u0435\u0440\u0438\u0438)
p12
aV\u042e\u043d\u0438\u0442 \u2116
p13
aV\u042d\u0442\u0430\u0436
p14
aV\u041a\u043e\u043c\u043d\u0430\u0442\u0430
p15
aV\u0421\u0442\u043e\u0439\u043a\u0430
p16
aV\u0410\u0434\u0440\u0435\u0441
p17
aV\u041e\u0440\u0433\u0441\u0442\u0440\u0443\u043a\u0442\u0443\u0440\u0430
p18
aV\u041c\u0430\u0442\u0435\u0440\u0438\u0430\u043b\u044c\u043d\u0430\u044f \u043e\u0442\u0432\u0435\u0442\u0441\u0442\u0432\u0435\u043d\u043d\u043e\u0441\u0442\u044c
p19
aV\u0410\u0434\u043c\u0438\u043d\u0438\u0441\u0442\u0440\u0430\u0442\u043e\u0440
p20
aV\u0421\u0442\u0430\u0442\u0443\u0441
p21
aV\u041a\u043e\u043d\u0442\u0443\u0440
p22
aV\u041e\u0442\u0432\u0435\u0442\u0441\u0442\u0432\u0435\u043d\u043d\u044b\u0439  \u0437\u0430 \u0441\u0438\u0441\u0442\u0435\u043c\u0443
p23
aV\u041f\u043e\u0441\u0442\u0430\u0432\u0449\u0438\u043a
p24
aV\u041a\u043e\u043d\u0442\u0440\u0430\u043a\u0442 \u043f\u043e\u0441\u0442\u0430\u0432\u043a\u0438
p25
aV\u041d\u0430\u0438\u043c\u0435\u043d\u043e\u0432\u0430\u043d\u0438\u0435 \u0441\u043e\u0433\u043b\u0430\u0441\u043d\u043e \u043a\u043e\u043d\u0442\u0440\u0430\u043a\u0442\u0443 \u043f\u043e\u0441\u0442\u0430\u0432\u043a\u0438
p26
aV\u0421\u0440\u043e\u043a \u0433\u0430\u0440\u0430\u043d\u0442\u0438\u0438 \u043f\u043e\u0441\u0442\u0430\u0432\u0449\u0438\u043a\u0430
p27
aV\u0421\u0440\u043e\u043a \u0433\u0430\u0440\u0430\u043d\u0442\u0438\u0438 \u043f\u0440\u043e\u0438\u0437\u0432\u043e\u0434\u0438\u0442\u0435\u043b\u044f
p28
aV\u0413\u043e\u0434 \u0432\u044b\u043f\u0443\u0441\u043a\u0430
p29
aV\u0418\u0441\u043f\u043e\u043b\u043d\u0438\u0442\u0435\u043b\u044c \u043f\u043e \u043f\u043e\u0441\u0442\u0433\u0430\u0440\u0430\u043d\u0442\u0438\u0438
p30
aV\u041a\u043e\u043d\u0442\u0440\u0430\u043a\u0442 \u043f\u043e\u0441\u0442\u0433\u0430\u0440\u0430\u043d\u0442\u0438\u0438
p31
aV\u0421\u0440\u043e\u043a \u0433\u0430\u0440\u0430\u043d\u0442\u0438\u0438 \u043f\u043e \u043a\u043e\u043d\u0442\u0440\u0430\u043a\u0442\u0443 \u043f\u043e\u0441\u0442\u0433\u0430\u0440\u0430\u043d\u0442\u0438\u0438
p32
aV\u041a\u043e\u043d\u0442\u0440\u0430\u043a\u0442 \u043f\u043e\u0441\u0442\u0430\u0432\u043a\u0438 \u041c\u043e\u0434\u0435\u0440\u043d\u0438\u0437\u0430\u0446\u0438\u0438
p33
aV\u0421\u0440\u043e\u043a \u0433\u0430\u0440\u0430\u043d\u0442\u0438\u0438 \u043f\u043e\u0441\u0442\u0430\u0432\u0449\u0438\u043a\u0430 \u041c\u043e\u0434\u0435\u0440\u043d\u0438\u0437\u0430\u0446\u0438\u0438
p34
aV\u0413\u043e\u0434 \u0432\u044b\u043f\u0443\u0441\u043a\u0430 \u041c\u043e\u0434\u0435\u0440\u043d\u0438\u0437\u0430\u0446\u0438\u0438
p35
aV\u041a\u043e\u043d\u0442\u0440\u0430\u043a\u0442 \u043f\u043e\u0441\u0442\u0430\u0432\u043a\u0438 \u041c\u043e\u0434\u0435\u0440\u043d\u0438\u0437\u0430\u0446\u0438\u0438 2
p36
aV\u0421\u0440\u043e\u043a \u0433\u0430\u0440\u0430\u043d\u0442\u0438\u0438 \u043f\u043e\u0441\u0442\u0430\u0432\u0449\u0438\u043a\u0430 \u041c\u043e\u0434\u0435\u0440\u043d\u0438\u0437\u0430\u0446\u0438\u0438 2
p37
aV\u0413\u043e\u0434 \u0432\u044b\u043f\u0443\u0441\u043a\u0430 \u041c\u043e\u0434\u0435\u0440\u043d\u0438\u0437\u0430\u0446\u0438\u0438 2
p38
aV\u0427\u0430\u0441\u0442\u043e\u0442\u0430 \u043f\u0440\u043e\u0446\u0435\u0441\u0441\u043e\u0440\u0430 (CPU)
p39
aV\u041a\u043e\u043b\u0438\u0447\u0435\u0441\u0442\u0432\u043e \u043f\u0440\u043e\u0446\u0435\u0441\u0441\u043e\u0440\u043e\u0432 (CPU)
p40
aV\u0421\u0443\u043c\u043c\u0430\u0440\u043d\u043e\u0435 \u043a\u043e\u043b\u0438\u0447\u0435\u0441\u0442\u0432\u043e \u044f\u0434\u0435\u0440 \u0432\u043e \u0432\u0441\u0435\u0445 CPU
p41
aV\u0410\u043a\u0442\u0438\u0432\u0438\u0440\u043e\u0432\u0430\u043d\u043e*
p42
aV\u041e\u043f\u0435\u0440\u0430\u0442\u0438\u0432\u043d\u0430\u044f \u043f\u0430\u043c\u044f\u0442\u044c (\u043e\u0431\u044a\u0435\u043c)
p43
aV\u041a\u043e\u043b\u0438\u0447\u0435\u0441\u0442\u0432\u043e \u0441\u043b\u043e\u0442\u043e\u0432 \u0434\u043b\u044f \u041e\u041f
p44
aV\u041a\u043e\u043b\u0438\u0447\u0435\u0441\u0442\u0432\u043e \u0437\u0430\u043d\u044f\u0442\u044b\u0445 \u0441\u043b\u043e\u0442\u043e\u0432 \u041e\u041f
p45
aV\u0422\u0438\u043f 1
p46
aV\u041a\u043e\u043b-\u0432\u043e \u0422\u0438\u043f 1
p47
aV\u041e\u0431\u044a\u0451\u043c 1, \u0413\u0431
p48
aV\u0422\u0438\u043f 2
p49
aV\u041a\u043e\u043b-\u0432\u043e \u0422\u0438\u043f 2
p50
aV\u041e\u0431\u044a\u0451\u043c 2, \u0413\u0431
p51
aV\u0422\u0438\u043f 3
p52
aV\u041a\u043e\u043b-\u0432\u043e \u0422\u0438\u043f 3
p53
aV\u041e\u0431\u044a\u0451\u043c 3, \u0413\u0431
p54
aV\u041a\u043e\u043b\u0438\u0447\u0435\u0441\u0442\u0432\u043e \u0441\u0432\u043e\u0431\u043e\u0434\u043d\u044b\u0445 \u0441\u043b\u043e\u0442\u043e\u0432 \u0434\u043b\u044f \u0434\u0438\u0441\u043a\u043e\u0432
p55
aV\u041f\u043e\u0442\u0440\u0435\u0431\u043b\u044f\u0435\u043c\u0430\u044f \u043c\u043e\u0449\u043d\u043e\u0441\u0442\u044c (\u0412\u0442)
p56
aV\u0412\u0441\u0435\u0433\u043e
p57
aV\u0417\u0430\u043d\u044f\u0442\u043e
p58
ag57
ag58
aV\u0421\u041a\u0417\u0418 (\u0421\u043e\u0431\u043e\u043b\u044c) 
p59
aV\u0418\u043c\u044f \u0445\u043e\u0441\u0442\u0430
p60
aVIP
p61
aV\u041c\u0430\u0441\u043a\u0430
p62
aV\u0428\u043b\u044e\u0437
p63
aVMAC-\u0430\u0434\u0440\u0435\u0441
p64
ag60
ag61
ag62
ag63
ag64
a.